; Function Attrs: mustprogress nounwind uwtable
define hidden void @_ZN5Klass18oop_print_value_onEP7oopDescP12outputStream(ptr noundef nonnull align 8 dereferenceable(196) %0, ptr noundef %1, ptr noundef %2) unnamed_addr #0 align 2 {
  %4 = tail call align 8 ptr @llvm.threadlocal.address.p0(ptr align 8 @_ZN6Thread12_thr_currentE)
  %5 = load ptr, ptr %4, align 8
  %6 = getelementptr inbounds i8, ptr %5, i64 800
  %7 = load ptr, ptr %6, align 8
  %8 = getelementptr inbounds i8, ptr %7, i64 24
  %9 = load ptr, ptr %8, align 8
  %10 = getelementptr inbounds i8, ptr %7, i64 32
  %11 = load ptr, ptr %10, align 8
  %12 = getelementptr inbounds i8, ptr %7, i64 40
  %13 = load ptr, ptr %12, align 8
  %14 = getelementptr inbounds i8, ptr %7, i64 8
  %15 = load i64, ptr %14, align 8
  %16 = load ptr, ptr %0, align 8
  %17 = getelementptr inbounds i8, ptr %16, i64 64
  %18 = load ptr, ptr %17, align 8
  %19 = tail call noundef ptr %18(ptr noundef nonnull align 8 dereferenceable(196) %0) #21
  tail call void (ptr, ptr, ...) @_ZN12outputStream5printEPKcz(ptr noundef nonnull align 8 dereferenceable(56) %2, ptr noundef nonnull @.str.22, ptr noundef %19) #21
  tail call void @_ZNK7oopDesc16print_address_onEP12outputStream(ptr noundef nonnull align 8 dereferenceable(16) %1, ptr noundef nonnull %2) #21
  %20 = load ptr, ptr %9, align 8
  %.not.i.i.i.i = icmp eq ptr %20, null
  br i1 %.not.i.i.i.i, label %22, label %21

21:                                               ; preds = %3
  tail call void @_ZN5Arena17set_size_in_bytesEm(ptr noundef nonnull align 8 dereferenceable(48) %7, i64 noundef %15) #21
  tail call void @_ZN5Chunk9next_chopEPS_(ptr noundef nonnull %9) #21
  br label %22

22:                                               ; preds = %21, %3
  %23 = load ptr, ptr %10, align 8
  %.not8.i.i.i.i = icmp eq ptr %23, %11
  br i1 %.not8.i.i.i.i, label %_ZN12ResourceMarkD2Ev.exit, label %24

24:                                               ; preds = %22
  store ptr %9, ptr %8, align 8
  store ptr %11, ptr %10, align 8
  store ptr %13, ptr %12, align 8
  br label %_ZN12ResourceMarkD2Ev.exit

_ZN12ResourceMarkD2Ev.exit:                       ; preds = %22, %24
  ret void
}